; ModuleID = '51/450.c'
source_filename = "51/450.c"
target datalayout = "e-m:e-p270:32:32-p271:32:32-p272:64:64-i64:64-f80:128-n8:16:32:64-S128"
target triple = "x86_64-pc-linux-gnu"

@.str = private unnamed_addr constant [4 x i8] c"%d\0A\00", align 1
@.str.1 = private unnamed_addr constant [3 x i8] c"NO\00", align 1
@.str.2 = private unnamed_addr constant [3 x i8] c"%c\00", align 1
@.str.3 = private unnamed_addr constant [2 x i8] c"\0A\00", align 1

; Function Attrs: noinline nounwind uwtable
define dso_local i32 @main() #0 {
  %1 = alloca i32, align 4
  %2 = alloca i32, align 4
  %3 = alloca i32, align 4
  %4 = alloca i32, align 4
  %5 = alloca i32, align 4
  %6 = alloca i32, align 4
  %7 = alloca [500 x i32], align 16
  %8 = alloca i32, align 4
  %9 = alloca i32, align 4
  %10 = alloca [5 x i8], align 1
  %11 = alloca [500 x i8], align 16
  store i32 0, i32* %1, align 4
  %12 = bitcast [500 x i32]* %7 to i8*
  call void @llvm.memset.p0i8.i64(i8* align 16 %12, i8 0, i64 2000, i1 false)
  store i32 0, i32* %9, align 4
  %13 = call i32 (i8*, ...) @__isoc99_scanf(i8* getelementptr inbounds ([4 x i8], [4 x i8]* @.str, i64 0, i64 0), i32* %2)
  %14 = getelementptr inbounds [500 x i8], [500 x i8]* %11, i64 0, i64 0
  %15 = call i32 (i8*, ...) bitcast (i32 (...)* @gets to i32 (i8*, ...)*)(i8* %14)
  %16 = getelementptr inbounds [500 x i8], [500 x i8]* %11, i64 0, i64 0
  %17 = call i64 @strlen(i8* %16) #4
  %18 = trunc i64 %17 to i32
  store i32 %18, i32* %6, align 4
  store i32 0, i32* %3, align 4
  br label %19

19:                                               ; preds = %92, %0
  %20 = load i32, i32* %3, align 4
  %21 = load i32, i32* %6, align 4
  %22 = load i32, i32* %2, align 4
  %23 = sub nsw i32 %21, %22
  %24 = add nsw i32 %23, 1
  %25 = icmp slt i32 %20, %24
  br i1 %25, label %26, label %95

26:                                               ; preds = %19
  store i32 0, i32* %4, align 4
  br label %27

27:                                               ; preds = %41, %26
  %28 = load i32, i32* %4, align 4
  %29 = load i32, i32* %2, align 4
  %30 = icmp slt i32 %28, %29
  br i1 %30, label %31, label %44

31:                                               ; preds = %27
  %32 = load i32, i32* %3, align 4
  %33 = load i32, i32* %4, align 4
  %34 = add nsw i32 %32, %33
  %35 = sext i32 %34 to i64
  %36 = getelementptr inbounds [500 x i8], [500 x i8]* %11, i64 0, i64 %35
  %37 = load i8, i8* %36, align 1
  %38 = load i32, i32* %4, align 4
  %39 = sext i32 %38 to i64
  %40 = getelementptr inbounds [5 x i8], [5 x i8]* %10, i64 0, i64 %39
  store i8 %37, i8* %40, align 1
  br label %41

41:                                               ; preds = %31
  %42 = load i32, i32* %4, align 4
  %43 = add nsw i32 %42, 1
  store i32 %43, i32* %4, align 4
  br label %27

44:                                               ; preds = %27
  %45 = load i32, i32* %3, align 4
  store i32 %45, i32* %4, align 4
  br label %46

46:                                               ; preds = %88, %44
  %47 = load i32, i32* %4, align 4
  %48 = load i32, i32* %6, align 4
  %49 = load i32, i32* %2, align 4
  %50 = sub nsw i32 %48, %49
  %51 = add nsw i32 %50, 1
  %52 = icmp slt i32 %47, %51
  br i1 %52, label %53, label %91

53:                                               ; preds = %46
  store i32 0, i32* %8, align 4
  store i32 0, i32* %5, align 4
  br label %54

54:                                               ; preds = %75, %53
  %55 = load i32, i32* %5, align 4
  %56 = load i32, i32* %2, align 4
  %57 = icmp slt i32 %55, %56
  br i1 %57, label %58, label %78

58:                                               ; preds = %54
  %59 = load i32, i32* %5, align 4
  %60 = sext i32 %59 to i64
  %61 = getelementptr inbounds [5 x i8], [5 x i8]* %10, i64 0, i64 %60
  %62 = load i8, i8* %61, align 1
  %63 = sext i8 %62 to i32
  %64 = load i32, i32* %4, align 4
  %65 = load i32, i32* %5, align 4
  %66 = add nsw i32 %64, %65
  %67 = sext i32 %66 to i64
  %68 = getelementptr inbounds [500 x i8], [500 x i8]* %11, i64 0, i64 %67
  %69 = load i8, i8* %68, align 1
  %70 = sext i8 %69 to i32
  %71 = icmp eq i32 %63, %70
  br i1 %71, label %72, label %73

72:                                               ; preds = %58
  store i32 1, i32* %8, align 4
  br label %74

73:                                               ; preds = %58
  store i32 0, i32* %8, align 4
  br label %78

74:                                               ; preds = %72
  br label %75

75:                                               ; preds = %74
  %76 = load i32, i32* %5, align 4
  %77 = add nsw i32 %76, 1
  store i32 %77, i32* %5, align 4
  br label %54

78:                                               ; preds = %73, %54
  %79 = load i32, i32* %8, align 4
  %80 = icmp ne i32 %79, 0
  br i1 %80, label %81, label %87

81:                                               ; preds = %78
  %82 = load i32, i32* %3, align 4
  %83 = sext i32 %82 to i64
  %84 = getelementptr inbounds [500 x i32], [500 x i32]* %7, i64 0, i64 %83
  %85 = load i32, i32* %84, align 4
  %86 = add nsw i32 %85, 1
  store i32 %86, i32* %84, align 4
  br label %87

87:                                               ; preds = %81, %78
  br label %88

88:                                               ; preds = %87
  %89 = load i32, i32* %4, align 4
  %90 = add nsw i32 %89, 1
  store i32 %90, i32* %4, align 4
  br label %46

91:                                               ; preds = %46
  br label %92

92:                                               ; preds = %91
  %93 = load i32, i32* %3, align 4
  %94 = add nsw i32 %93, 1
  store i32 %94, i32* %3, align 4
  br label %19

95:                                               ; preds = %19
  store i32 0, i32* %3, align 4
  br label %96

96:                                               ; preds = %116, %95
  %97 = load i32, i32* %3, align 4
  %98 = load i32, i32* %6, align 4
  %99 = load i32, i32* %2, align 4
  %100 = sub nsw i32 %98, %99
  %101 = add nsw i32 %100, 1
  %102 = icmp slt i32 %97, %101
  br i1 %102, label %103, label %119

103:                                              ; preds = %96
  %104 = load i32, i32* %3, align 4
  %105 = sext i32 %104 to i64
  %106 = getelementptr inbounds [500 x i32], [500 x i32]* %7, i64 0, i64 %105
  %107 = load i32, i32* %106, align 4
  %108 = load i32, i32* %9, align 4
  %109 = icmp sgt i32 %107, %108
  br i1 %109, label %110, label %115

110:                                              ; preds = %103
  %111 = load i32, i32* %3, align 4
  %112 = sext i32 %111 to i64
  %113 = getelementptr inbounds [500 x i32], [500 x i32]* %7, i64 0, i64 %112
  %114 = load i32, i32* %113, align 4
  store i32 %114, i32* %9, align 4
  br label %115

115:                                              ; preds = %110, %103
  br label %116

116:                                              ; preds = %115
  %117 = load i32, i32* %3, align 4
  %118 = add nsw i32 %117, 1
  store i32 %118, i32* %3, align 4
  br label %96

119:                                              ; preds = %96
  %120 = load i32, i32* %9, align 4
  %121 = icmp eq i32 %120, 1
  br i1 %121, label %122, label %124

122:                                              ; preds = %119
  %123 = call i32 (i8*, ...) @printf(i8* getelementptr inbounds ([3 x i8], [3 x i8]* @.str.1, i64 0, i64 0))
  br label %165

124:                                              ; preds = %119
  %125 = load i32, i32* %9, align 4
  %126 = call i32 (i8*, ...) @printf(i8* getelementptr inbounds ([4 x i8], [4 x i8]* @.str, i64 0, i64 0), i32 %125)
  store i32 0, i32* %3, align 4
  br label %127

127:                                              ; preds = %161, %124
  %128 = load i32, i32* %3, align 4
  %129 = load i32, i32* %6, align 4
  %130 = load i32, i32* %2, align 4
  %131 = sub nsw i32 %129, %130
  %132 = add nsw i32 %131, 1
  %133 = icmp slt i32 %128, %132
  br i1 %133, label %134, label %164

134:                                              ; preds = %127
  %135 = load i32, i32* %3, align 4
  %136 = sext i32 %135 to i64
  %137 = getelementptr inbounds [500 x i32], [500 x i32]* %7, i64 0, i64 %136
  %138 = load i32, i32* %137, align 4
  %139 = load i32, i32* %9, align 4
  %140 = icmp eq i32 %138, %139
  br i1 %140, label %141, label %160

141:                                              ; preds = %134
  store i32 0, i32* %4, align 4
  br label %142

142:                                              ; preds = %155, %141
  %143 = load i32, i32* %4, align 4
  %144 = load i32, i32* %2, align 4
  %145 = icmp slt i32 %143, %144
  br i1 %145, label %146, label %158

146:                                              ; preds = %142
  %147 = load i32, i32* %3, align 4
  %148 = load i32, i32* %4, align 4
  %149 = add nsw i32 %147, %148
  %150 = sext i32 %149 to i64
  %151 = getelementptr inbounds [500 x i8], [500 x i8]* %11, i64 0, i64 %150
  %152 = load i8, i8* %151, align 1
  %153 = sext i8 %152 to i32
  %154 = call i32 (i8*, ...) @printf(i8* getelementptr inbounds ([3 x i8], [3 x i8]* @.str.2, i64 0, i64 0), i32 %153)
  br label %155

155:                                              ; preds = %146
  %156 = load i32, i32* %4, align 4
  %157 = add nsw i32 %156, 1
  store i32 %157, i32* %4, align 4
  br label %142

158:                                              ; preds = %142
  %159 = call i32 (i8*, ...) @printf(i8* getelementptr inbounds ([2 x i8], [2 x i8]* @.str.3, i64 0, i64 0))
  br label %160

160:                                              ; preds = %158, %134
  br label %161

161:                                              ; preds = %160
  %162 = load i32, i32* %3, align 4
  %163 = add nsw i32 %162, 1
  store i32 %163, i32* %3, align 4
  br label %127

164:                                              ; preds = %127
  br label %165

165:                                              ; preds = %164, %122
  ret i32 0
}

; Function Attrs: argmemonly nounwind willreturn
declare void @llvm.memset.p0i8.i64(i8* nocapture writeonly, i8, i64, i1 immarg) #1

declare dso_local i32 @__isoc99_scanf(i8*, ...) #2

declare dso_local i32 @gets(...) #2

; Function Attrs: nounwind readonly
declare dso_local i64 @strlen(i8*) #3

declare dso_local i32 @printf(i8*, ...) #2


!llvm.module.flags = !{!0}
!llvm.ident = !{!1}

!0 = !{i32 1, !"wchar_size", i32 4}
!1 = !{!"clang version 10.0.0-4ubuntu1 "}
